target datalayout = "e-m:e-p270:32:32-p271:32:32-p272:64:64-i64:64-i128:128-f80:128-n8:16:32:64-S128"
target triple = "x86_64-pc-linux-gnu"

%struct.ident_t = type { i32, i32, i32, i32, ptr }
%"class.ncnn::RMSNorm" = type { %"class.ncnn::Layer", i32, float, i32, %"class.ncnn::Mat" }
%"class.ncnn::Layer" = type { ptr, i8, i8, i8, i8, i8, i8, i8, i8, i8, i8, i8, i8, i8, i8, i8, i8, i8, i8, i8, i8, i32, ptr, i32, %"class.std::__cxx11::basic_string", %"class.std::__cxx11::basic_string", %"class.std::vector", %"class.std::vector", %"class.std::vector.3", %"class.std::vector.3" }
%"class.std::__cxx11::basic_string" = type { %"struct.std::__cxx11::basic_string<char>::_Alloc_hider", i64, %union.anon }
%"struct.std::__cxx11::basic_string<char>::_Alloc_hider" = type { ptr }
%union.anon = type { i64, [8 x i8] }
%"class.std::vector" = type { %"struct.std::_Vector_base" }
%"struct.std::_Vector_base" = type { %"struct.std::_Vector_base<int, std::allocator<int>>::_Vector_impl" }
%"struct.std::_Vector_base<int, std::allocator<int>>::_Vector_impl" = type { %"struct.std::_Vector_base<int, std::allocator<int>>::_Vector_impl_data" }
%"struct.std::_Vector_base<int, std::allocator<int>>::_Vector_impl_data" = type { ptr, ptr, ptr }
%"class.std::vector.3" = type { %"struct.std::_Vector_base.4" }
%"struct.std::_Vector_base.4" = type { %"struct.std::_Vector_base<ncnn::Mat, std::allocator<ncnn::Mat>>::_Vector_impl" }
%"struct.std::_Vector_base<ncnn::Mat, std::allocator<ncnn::Mat>>::_Vector_impl" = type { %"struct.std::_Vector_base<ncnn::Mat, std::allocator<ncnn::Mat>>::_Vector_impl_data" }
%"struct.std::_Vector_base<ncnn::Mat, std::allocator<ncnn::Mat>>::_Vector_impl_data" = type { ptr, ptr, ptr }
%"class.ncnn::Mat" = type { ptr, ptr, i64, i32, ptr, i32, i32, i32, i32, i32, i64 }
%"class.ncnn::Option" = type { i8, i32, ptr, ptr, i32, i8, i8, i8, i8, i8, i8, i8, i8, i8, i8, i8, i8, i8, i8, i8, i8, i8, i8, i8, i8, i32, i8, i8, i8, i8, i8, i8, i8, i8, i8, i8, i8, i8 }

@2 = private unnamed_addr constant %struct.ident_t { i32 0, i32 2, i32 0, i32 22, ptr @0 }, align 8

; Function Attrs: alwaysinline mustprogress nounwind uwtable
define linkonce_odr hidden noundef nonnull align 4 dereferenceable(4) ptr @_ZNK4ncnn3MatixEm(ptr noundef nonnull align 8 dereferenceable(72) %0, i64 noundef %1) #3 comdat align 2 {
  %3 = alloca ptr, align 8
  %4 = alloca i64, align 8
  store ptr %0, ptr %3, align 8, !tbaa !39
  store i64 %1, ptr %4, align 8, !tbaa !66
  %5 = load ptr, ptr %3, align 8
  %6 = getelementptr inbounds nuw %"class.ncnn::Mat", ptr %5, i32 0, i32 0
  %7 = load ptr, ptr %6, align 8, !tbaa !58
  %8 = load i64, ptr %4, align 8, !tbaa !66
  %9 = getelementptr inbounds nuw float, ptr %7, i64 %8
  ret ptr %9
}

; Function Attrs: alwaysinline mustprogress nounwind uwtable
define linkonce_odr hidden noundef ptr @_ZN4ncnn3MatcvPT_IfEEv(ptr noundef nonnull align 8 dereferenceable(72) %0) #3 comdat align 2 {
  %2 = alloca ptr, align 8
  store ptr %0, ptr %2, align 8, !tbaa !39
  %3 = load ptr, ptr %2, align 8
  %4 = getelementptr inbounds nuw %"class.ncnn::Mat", ptr %3, i32 0, i32 0
  %5 = load ptr, ptr %4, align 8, !tbaa !58
  ret ptr %5
}

; Function Attrs: mustprogress uwtable
define hidden noundef i32 @_ZNK4ncnn7RMSNorm15forward_inplaceERNS_3MatERKNS_6OptionE(ptr noundef nonnull align 8 dereferenceable(296) %0, ptr noundef nonnull align 8 dereferenceable(72) %1, ptr noundef nonnull align 8 dereferenceable(64) %2) unnamed_addr #1 align 2 {
  %4 = alloca ptr, align 8
  %5 = alloca ptr, align 8
  %6 = alloca ptr, align 8
  %7 = alloca i32, align 4
  %8 = alloca i32, align 4
  %9 = alloca ptr, align 8
  %10 = alloca float, align 4
  %11 = alloca i32, align 4
  %12 = alloca float, align 4
  %13 = alloca float, align 4
  %14 = alloca i32, align 4
  %15 = alloca i32, align 4
  %16 = alloca i32, align 4
  %17 = alloca i32, align 4
  %18 = alloca i32, align 4
  %19 = alloca i32, align 4
  %20 = alloca i32, align 4
  %21 = alloca i32, align 4
  %22 = call i32 @__kmpc_global_thread_num(ptr @2)
  store ptr %0, ptr %4, align 8, !tbaa !4
  store ptr %1, ptr %5, align 8, !tbaa !39
  store ptr %2, ptr %6, align 8, !tbaa !40
  %23 = load ptr, ptr %4, align 8
  call void @llvm.lifetime.start.p0(i64 4, ptr %7) #10
  %24 = load ptr, ptr %5, align 8, !tbaa !39
  %25 = getelementptr inbounds nuw %"class.ncnn::Mat", ptr %24, i32 0, i32 5
  %26 = load i32, ptr %25, align 8, !tbaa !42
  store i32 %26, ptr %7, align 4, !tbaa !43
  %27 = load i32, ptr %7, align 4, !tbaa !43
  %28 = icmp eq i32 %27, 1
  br i1 %28, label %29, label %122

29:                                               ; preds = %3
  call void @llvm.lifetime.start.p0(i64 4, ptr %8) #10
  %30 = load ptr, ptr %5, align 8, !tbaa !39
  %31 = getelementptr inbounds nuw %"class.ncnn::Mat", ptr %30, i32 0, i32 6
  %32 = load i32, ptr %31, align 4, !tbaa !44
  store i32 %32, ptr %8, align 4, !tbaa !43
  call void @llvm.lifetime.start.p0(i64 8, ptr %9) #10
  %33 = load ptr, ptr %5, align 8, !tbaa !39
  %34 = call noundef ptr @_ZN4ncnn3MatcvPT_IfEEv(ptr noundef nonnull align 8 dereferenceable(72) %33)
  store ptr %34, ptr %9, align 8, !tbaa !45
  call void @llvm.lifetime.start.p0(i64 4, ptr %10) #10
  store float 0.000000e+00, ptr %10, align 4, !tbaa !47
  call void @llvm.lifetime.start.p0(i64 4, ptr %11) #10
  store i32 0, ptr %11, align 4, !tbaa !43
  br label %35

35:                                               ; preds = %54, %29
  %36 = load i32, ptr %11, align 4, !tbaa !43
  %37 = load i32, ptr %8, align 4, !tbaa !43
  %38 = icmp slt i32 %36, %37
  br i1 %38, label %40, label %39

39:                                               ; preds = %35
  call void @llvm.lifetime.end.p0(i64 4, ptr %11) #10
  br label %57

40:                                               ; preds = %35
  %41 = load ptr, ptr %9, align 8, !tbaa !45
  %42 = load i32, ptr %11, align 4, !tbaa !43
  %43 = sext i32 %42 to i64
  %44 = getelementptr inbounds float, ptr %41, i64 %43
  %45 = load float, ptr %44, align 4, !tbaa !47
  %46 = load ptr, ptr %9, align 8, !tbaa !45
  %47 = load i32, ptr %11, align 4, !tbaa !43
  %48 = sext i32 %47 to i64
  %49 = getelementptr inbounds float, ptr %46, i64 %48
  %50 = load float, ptr %49, align 4, !tbaa !47
  %51 = fmul fast float %45, %50
  %52 = load float, ptr %10, align 4, !tbaa !47
  %53 = fadd fast float %52, %51
  store float %53, ptr %10, align 4, !tbaa !47
  br label %54

54:                                               ; preds = %40
  %55 = load i32, ptr %11, align 4, !tbaa !43
  %56 = add nsw i32 %55, 1
  store i32 %56, ptr %11, align 4, !tbaa !43
  br label %35, !llvm.loop !48

57:                                               ; preds = %39
  call void @llvm.lifetime.start.p0(i64 4, ptr %12) #10
  %58 = load float, ptr %10, align 4, !tbaa !47
  %59 = load i32, ptr %8, align 4, !tbaa !43
  %60 = sitofp i32 %59 to float
  %61 = fdiv fast float %58, %60
  %62 = getelementptr inbounds nuw %"class.ncnn::RMSNorm", ptr %23, i32 0, i32 2
  %63 = load float, ptr %62, align 4, !tbaa !35
  %64 = fadd fast float %61, %63
  %65 = call fast float @llvm.sqrt.f32(float %64)
  store float %65, ptr %12, align 4, !tbaa !47
  call void @llvm.lifetime.start.p0(i64 4, ptr %13) #10
  %66 = load float, ptr %12, align 4, !tbaa !47
  %67 = fdiv fast float 1.000000e+00, %66
  store float %67, ptr %13, align 4, !tbaa !47
  %68 = getelementptr inbounds nuw %"class.ncnn::RMSNorm", ptr %23, i32 0, i32 3
  %69 = load i32, ptr %68, align 8, !tbaa !36
  %70 = icmp ne i32 %69, 0
  br i1 %70, label %71, label %99

71:                                               ; preds = %57
  call void @llvm.lifetime.start.p0(i64 4, ptr %14) #10
  store i32 0, ptr %14, align 4, !tbaa !43
  br label %72

72:                                               ; preds = %95, %71
  %73 = load i32, ptr %14, align 4, !tbaa !43
  %74 = load i32, ptr %8, align 4, !tbaa !43
  %75 = icmp slt i32 %73, %74
  br i1 %75, label %77, label %76

76:                                               ; preds = %72
  call void @llvm.lifetime.end.p0(i64 4, ptr %14) #10
  br label %98

77:                                               ; preds = %72
  %78 = load ptr, ptr %9, align 8, !tbaa !45
  %79 = load i32, ptr %14, align 4, !tbaa !43
  %80 = sext i32 %79 to i64
  %81 = getelementptr inbounds float, ptr %78, i64 %80
  %82 = load float, ptr %81, align 4, !tbaa !47
  %83 = load float, ptr %13, align 4, !tbaa !47
  %84 = fmul fast float %82, %83
  %85 = getelementptr inbounds nuw %"class.ncnn::RMSNorm", ptr %23, i32 0, i32 4
  %86 = load i32, ptr %14, align 4, !tbaa !43
  %87 = sext i32 %86 to i64
  %88 = call noundef nonnull align 4 dereferenceable(4) ptr @_ZNK4ncnn3MatixEm(ptr noundef nonnull align 8 dereferenceable(72) %85, i64 noundef %87)
  %89 = load float, ptr %88, align 4, !tbaa !47
  %90 = fmul fast float %84, %89
  %91 = load ptr, ptr %9, align 8, !tbaa !45
  %92 = load i32, ptr %14, align 4, !tbaa !43
  %93 = sext i32 %92 to i64
  %94 = getelementptr inbounds float, ptr %91, i64 %93
  store float %90, ptr %94, align 4, !tbaa !47
  br label %95

95:                                               ; preds = %77
  %96 = load i32, ptr %14, align 4, !tbaa !43
  %97 = add nsw i32 %96, 1
  store i32 %97, ptr %14, align 4, !tbaa !43
  br label %72, !llvm.loop !50

98:                                               ; preds = %76
  br label %121

99:                                               ; preds = %57
  call void @llvm.lifetime.start.p0(i64 4, ptr %15) #10
  store i32 0, ptr %15, align 4, !tbaa !43
  br label %100

100:                                              ; preds = %117, %99
  %101 = load i32, ptr %15, align 4, !tbaa !43
  %102 = load i32, ptr %8, align 4, !tbaa !43
  %103 = icmp slt i32 %101, %102
  br i1 %103, label %105, label %104

104:                                              ; preds = %100
  call void @llvm.lifetime.end.p0(i64 4, ptr %15) #10
  br label %120

105:                                              ; preds = %100
  %106 = load ptr, ptr %9, align 8, !tbaa !45
  %107 = load i32, ptr %15, align 4, !tbaa !43
  %108 = sext i32 %107 to i64
  %109 = getelementptr inbounds float, ptr %106, i64 %108
  %110 = load float, ptr %109, align 4, !tbaa !47
  %111 = load float, ptr %13, align 4, !tbaa !47
  %112 = fmul fast float %110, %111
  %113 = load ptr, ptr %9, align 8, !tbaa !45
  %114 = load i32, ptr %15, align 4, !tbaa !43
  %115 = sext i32 %114 to i64
  %116 = getelementptr inbounds float, ptr %113, i64 %115
  store float %112, ptr %116, align 4, !tbaa !47
  br label %117

117:                                              ; preds = %105
  %118 = load i32, ptr %15, align 4, !tbaa !43
  %119 = add nsw i32 %118, 1
  store i32 %119, ptr %15, align 4, !tbaa !43
  br label %100, !llvm.loop !51

120:                                              ; preds = %104
  br label %121

121:                                              ; preds = %120, %98
  call void @llvm.lifetime.end.p0(i64 4, ptr %13) #10
  call void @llvm.lifetime.end.p0(i64 4, ptr %12) #10
  call void @llvm.lifetime.end.p0(i64 4, ptr %10) #10
  call void @llvm.lifetime.end.p0(i64 8, ptr %9) #10
  call void @llvm.lifetime.end.p0(i64 4, ptr %8) #10
  br label %122

122:                                              ; preds = %121, %3
  %123 = load i32, ptr %7, align 4, !tbaa !43
  %124 = icmp eq i32 %123, 2
  br i1 %124, label %125, label %136

125:                                              ; preds = %122
  call void @llvm.lifetime.start.p0(i64 4, ptr %16) #10
  %126 = load ptr, ptr %5, align 8, !tbaa !39
  %127 = getelementptr inbounds nuw %"class.ncnn::Mat", ptr %126, i32 0, i32 6
  %128 = load i32, ptr %127, align 4, !tbaa !44
  store i32 %128, ptr %16, align 4, !tbaa !43
  call void @llvm.lifetime.start.p0(i64 4, ptr %17) #10
  %129 = load ptr, ptr %5, align 8, !tbaa !39
  %130 = getelementptr inbounds nuw %"class.ncnn::Mat", ptr %129, i32 0, i32 7
  %131 = load i32, ptr %130, align 8, !tbaa !52
  store i32 %131, ptr %17, align 4, !tbaa !43
  %132 = load ptr, ptr %6, align 8, !tbaa !40
  %133 = getelementptr inbounds nuw %"class.ncnn::Option", ptr %132, i32 0, i32 1
  %134 = load i32, ptr %133, align 4, !tbaa !53
  call void @__kmpc_push_num_threads(ptr @2, i32 %22, i32 %134)
  %135 = load ptr, ptr %5, align 8, !tbaa !39
  call void (ptr, i32, ptr, ...) @__kmpc_fork_call(ptr @2, i32 4, ptr @_ZNK4ncnn7RMSNorm15forward_inplaceERNS_3MatERKNS_6OptionE.omp_outlined, ptr %17, ptr %135, ptr %16, ptr %23)
  call void @llvm.lifetime.end.p0(i64 4, ptr %17) #10
  call void @llvm.lifetime.end.p0(i64 4, ptr %16) #10
  br label %136

136:                                              ; preds = %125, %122
  %137 = load i32, ptr %7, align 4, !tbaa !43
  %138 = icmp eq i32 %137, 3
  br i1 %138, label %139, label %167

139:                                              ; preds = %136
  call void @llvm.lifetime.start.p0(i64 4, ptr %18) #10
  %140 = load ptr, ptr %5, align 8, !tbaa !39
  %141 = getelementptr inbounds nuw %"class.ncnn::Mat", ptr %140, i32 0, i32 6
  %142 = load i32, ptr %141, align 4, !tbaa !44
  store i32 %142, ptr %18, align 4, !tbaa !43
  call void @llvm.lifetime.start.p0(i64 4, ptr %19) #10
  %143 = load ptr, ptr %5, align 8, !tbaa !39
  %144 = getelementptr inbounds nuw %"class.ncnn::Mat", ptr %143, i32 0, i32 7
  %145 = load i32, ptr %144, align 8, !tbaa !52
  store i32 %145, ptr %19, align 4, !tbaa !43
  call void @llvm.lifetime.start.p0(i64 4, ptr %20) #10
  %146 = load ptr, ptr %5, align 8, !tbaa !39
  %147 = getelementptr inbounds nuw %"class.ncnn::Mat", ptr %146, i32 0, i32 9
  %148 = load i32, ptr %147, align 8, !tbaa !55
  store i32 %148, ptr %20, align 4, !tbaa !43
  call void @llvm.lifetime.start.p0(i64 4, ptr %21) #10
  %149 = load i32, ptr %18, align 4, !tbaa !43
  %150 = load i32, ptr %19, align 4, !tbaa !43
  %151 = mul nsw i32 %149, %150
  store i32 %151, ptr %21, align 4, !tbaa !43
  %152 = getelementptr inbounds nuw %"class.ncnn::RMSNorm", ptr %23, i32 0, i32 1
  %153 = load i32, ptr %152, align 8, !tbaa !13
  %154 = load i32, ptr %18, align 4, !tbaa !43
  %155 = icmp eq i32 %153, %154
  br i1 %155, label %156, label %161

156:                                              ; preds = %139
  %157 = load ptr, ptr %6, align 8, !tbaa !40
  %158 = getelementptr inbounds nuw %"class.ncnn::Option", ptr %157, i32 0, i32 1
  %159 = load i32, ptr %158, align 4, !tbaa !53
  call void @__kmpc_push_num_threads(ptr @2, i32 %22, i32 %159)
  %160 = load ptr, ptr %5, align 8, !tbaa !39
  call void (ptr, i32, ptr, ...) @__kmpc_fork_call(ptr @2, i32 5, ptr @_ZNK4ncnn7RMSNorm15forward_inplaceERNS_3MatERKNS_6OptionE.omp_outlined.1, ptr %20, ptr %19, ptr %160, ptr %18, ptr %23)
  br label %166

161:                                              ; preds = %139
  %162 = load ptr, ptr %6, align 8, !tbaa !40
  %163 = getelementptr inbounds nuw %"class.ncnn::Option", ptr %162, i32 0, i32 1
  %164 = load i32, ptr %163, align 4, !tbaa !53
  call void @__kmpc_push_num_threads(ptr @2, i32 %22, i32 %164)
  %165 = load ptr, ptr %5, align 8, !tbaa !39
  call void (ptr, i32, ptr, ...) @__kmpc_fork_call(ptr @2, i32 4, ptr @_ZNK4ncnn7RMSNorm15forward_inplaceERNS_3MatERKNS_6OptionE.omp_outlined.2, ptr %20, ptr %165, ptr %21, ptr %23)
  br label %166

166:                                              ; preds = %161, %156
  call void @llvm.lifetime.end.p0(i64 4, ptr %21) #10
  call void @llvm.lifetime.end.p0(i64 4, ptr %20) #10
  call void @llvm.lifetime.end.p0(i64 4, ptr %19) #10
  call void @llvm.lifetime.end.p0(i64 4, ptr %18) #10
  br label %167

167:                                              ; preds = %166, %136
  call void @llvm.lifetime.end.p0(i64 4, ptr %7) #10
  ret i32 0
}