; Function Attrs: mustprogress nounwind uwtable
define hidden noundef i32 @_ZNK4ncnn7RMSNorm15forward_inplaceERNS_3MatERKNS_6OptionE(ptr noundef nonnull align 8 dereferenceable(296) %0, ptr noundef nonnull align 8 dereferenceable(72) %1, ptr noundef nonnull readonly align 8 captures(none) dereferenceable(64) %2) unnamed_addr #3 align 2 {
  %4 = alloca i32, align 4
  %5 = alloca i32, align 4
  %6 = alloca i32, align 4
  %7 = alloca i32, align 4
  %8 = alloca i32, align 4
  %9 = alloca i32, align 4
  %10 = tail call i32 @__kmpc_global_thread_num(ptr nonnull @2)
  %11 = getelementptr inbounds nuw i8, ptr %1, i64 40
  %12 = load i32, ptr %11, align 8, !tbaa !39
  switch i32 %12, label %.loopexit [
    i32 1, label %13
    i32 2, label %._crit_edge70
    i32 3, label %._crit_edge69
  ]

13:                                               ; preds = %3
  %14 = getelementptr inbounds nuw i8, ptr %1, i64 44
  %15 = load i32, ptr %14, align 4, !tbaa !40
  %16 = load ptr, ptr %1, align 8, !tbaa !16
  %17 = icmp sgt i32 %15, 0
  br i1 %17, label %.lr.ph.preheader, label %._crit_edge

.lr.ph.preheader:                                 ; preds = %13
  %wide.trip.count = zext nneg i32 %15 to i64
  br label %.lr.ph

._crit_edge:                                      ; preds = %.lr.ph, %13
  %.046.lcssa = phi float [ 0.000000e+00, %13 ], [ %32, %.lr.ph ]
  %18 = sitofp i32 %15 to float
  %19 = fdiv fast float %.046.lcssa, %18
  %20 = getelementptr inbounds nuw i8, ptr %0, i64 212
  %21 = load float, ptr %20, align 4, !tbaa !35
  %22 = fadd fast float %21, %19
  %23 = tail call fast float @llvm.sqrt.f32(float %22)
  %24 = fdiv fast float 1.000000e+00, %23
  %25 = getelementptr inbounds nuw i8, ptr %0, i64 216
  %26 = load i32, ptr %25, align 8, !tbaa !36
  %.not = icmp eq i32 %26, 0
  br i1 %.not, label %.preheader, label %.preheader49

.preheader49:                                     ; preds = %._crit_edge
  br i1 %17, label %.lr.ph54, label %.loopexit

.lr.ph54:                                         ; preds = %.preheader49
  %27 = getelementptr inbounds nuw i8, ptr %0, i64 224
  %28 = load ptr, ptr %27, align 8, !tbaa !16
  %wide.trip.count62 = zext nneg i32 %15 to i64
  br label %33

.preheader:                                       ; preds = %._crit_edge
  br i1 %17, label %.lr.ph56.preheader, label %.loopexit

.lr.ph56.preheader:                               ; preds = %.preheader
  %wide.trip.count67 = zext nneg i32 %15 to i64
  br label %.lr.ph56

.lr.ph:                                           ; preds = %.lr.ph.preheader, %.lr.ph
  %indvars.iv = phi i64 [ 0, %.lr.ph.preheader ], [ %indvars.iv.next, %.lr.ph ]
  %.04652 = phi float [ 0.000000e+00, %.lr.ph.preheader ], [ %32, %.lr.ph ]
  %29 = getelementptr inbounds nuw float, ptr %16, i64 %indvars.iv
  %30 = load float, ptr %29, align 4, !tbaa !44
  %31 = fmul fast float %30, %30
  %32 = fadd fast float %31, %.04652
  %indvars.iv.next = add nuw nsw i64 %indvars.iv, 1
  %exitcond.not = icmp eq i64 %indvars.iv.next, %wide.trip.count
  br i1 %exitcond.not, label %._crit_edge, label %.lr.ph, !llvm.loop !45

33:                                               ; preds = %.lr.ph54, %33
  %indvars.iv59 = phi i64 [ 0, %.lr.ph54 ], [ %indvars.iv.next60, %33 ]
  %34 = getelementptr inbounds nuw float, ptr %16, i64 %indvars.iv59
  %35 = load float, ptr %34, align 4, !tbaa !44
  %36 = fmul fast float %35, %24
  %37 = getelementptr inbounds nuw float, ptr %28, i64 %indvars.iv59
  %38 = load float, ptr %37, align 4, !tbaa !44
  %39 = fmul fast float %36, %38
  store float %39, ptr %34, align 4, !tbaa !44
  %indvars.iv.next60 = add nuw nsw i64 %indvars.iv59, 1
  %exitcond63.not = icmp eq i64 %indvars.iv.next60, %wide.trip.count62
  br i1 %exitcond63.not, label %.loopexit, label %33, !llvm.loop !47

.lr.ph56:                                         ; preds = %.lr.ph56.preheader, %.lr.ph56
  %indvars.iv64 = phi i64 [ 0, %.lr.ph56.preheader ], [ %indvars.iv.next65, %.lr.ph56 ]
  %40 = getelementptr inbounds nuw float, ptr %16, i64 %indvars.iv64
  %41 = load float, ptr %40, align 4, !tbaa !44
  %42 = fmul fast float %41, %24
  store float %42, ptr %40, align 4, !tbaa !44
  %indvars.iv.next65 = add nuw nsw i64 %indvars.iv64, 1
  %exitcond68.not = icmp eq i64 %indvars.iv.next65, %wide.trip.count67
  br i1 %exitcond68.not, label %.loopexit, label %.lr.ph56, !llvm.loop !48

._crit_edge70:                                    ; preds = %3
  %.phi.trans.insert71 = getelementptr inbounds nuw i8, ptr %1, i64 44
  %.pre72 = load i32, ptr %.phi.trans.insert71, align 4, !tbaa !40
  call void @llvm.lifetime.start.p0(i64 4, ptr nonnull %4) #11
  store i32 %.pre72, ptr %4, align 4, !tbaa !49
  call void @llvm.lifetime.start.p0(i64 4, ptr nonnull %5) #11
  %43 = getelementptr inbounds nuw i8, ptr %1, i64 48
  %44 = load i32, ptr %43, align 8, !tbaa !41
  store i32 %44, ptr %5, align 4, !tbaa !49
  %45 = getelementptr inbounds nuw i8, ptr %2, i64 4
  %46 = load i32, ptr %45, align 4, !tbaa !50
  tail call void @__kmpc_push_num_threads(ptr nonnull @2, i32 %10, i32 %46)
  call void (ptr, i32, ptr, ...) @__kmpc_fork_call(ptr nonnull @2, i32 4, ptr nonnull @_ZNK4ncnn7RMSNorm15forward_inplaceERNS_3MatERKNS_6OptionE.omp_outlined, ptr nonnull %5, ptr nonnull %1, ptr nonnull %4, ptr nonnull %0)
  call void @llvm.lifetime.end.p0(i64 4, ptr nonnull %5) #11
  call void @llvm.lifetime.end.p0(i64 4, ptr nonnull %4) #11
  br label %.loopexit

._crit_edge69:                                    ; preds = %3
  %.phi.trans.insert = getelementptr inbounds nuw i8, ptr %1, i64 44
  %.pre = load i32, ptr %.phi.trans.insert, align 4, !tbaa !40
  call void @llvm.lifetime.start.p0(i64 4, ptr nonnull %6) #11
  store i32 %.pre, ptr %6, align 4, !tbaa !49
  call void @llvm.lifetime.start.p0(i64 4, ptr nonnull %7) #11
  %47 = getelementptr inbounds nuw i8, ptr %1, i64 48
  %48 = load i32, ptr %47, align 8, !tbaa !41
  store i32 %48, ptr %7, align 4, !tbaa !49
  call void @llvm.lifetime.start.p0(i64 4, ptr nonnull %8) #11
  %49 = getelementptr inbounds nuw i8, ptr %1, i64 56
  %50 = load i32, ptr %49, align 8, !tbaa !43
  store i32 %50, ptr %8, align 4, !tbaa !49
  call void @llvm.lifetime.start.p0(i64 4, ptr nonnull %9) #11
  %51 = mul nsw i32 %48, %.pre
  store i32 %51, ptr %9, align 4, !tbaa !49
  %52 = getelementptr inbounds nuw i8, ptr %0, i64 208
  %53 = load i32, ptr %52, align 8, !tbaa !18
  %54 = icmp eq i32 %53, %.pre
  %55 = getelementptr inbounds nuw i8, ptr %2, i64 4
  %56 = load i32, ptr %55, align 4, !tbaa !50
  tail call void @__kmpc_push_num_threads(ptr nonnull @2, i32 %10, i32 %56)
  br i1 %54, label %57, label %58

57:                                               ; preds = %._crit_edge69
  call void (ptr, i32, ptr, ...) @__kmpc_fork_call(ptr nonnull @2, i32 5, ptr nonnull @_ZNK4ncnn7RMSNorm15forward_inplaceERNS_3MatERKNS_6OptionE.omp_outlined.1, ptr nonnull %8, ptr nonnull %7, ptr nonnull %1, ptr nonnull %6, ptr nonnull %0)
  br label %59

58:                                               ; preds = %._crit_edge69
  call void (ptr, i32, ptr, ...) @__kmpc_fork_call(ptr nonnull @2, i32 4, ptr nonnull @_ZNK4ncnn7RMSNorm15forward_inplaceERNS_3MatERKNS_6OptionE.omp_outlined.2, ptr nonnull %8, ptr nonnull %1, ptr nonnull %9, ptr nonnull %0)
  br label %59

59:                                               ; preds = %58, %57
  call void @llvm.lifetime.end.p0(i64 4, ptr nonnull %9) #11
  call void @llvm.lifetime.end.p0(i64 4, ptr nonnull %8) #11
  call void @llvm.lifetime.end.p0(i64 4, ptr nonnull %7) #11
  call void @llvm.lifetime.end.p0(i64 4, ptr nonnull %6) #11
  br label %.loopexit

.loopexit:                                        ; preds = %33, %.lr.ph56, %.preheader, %.preheader49, %._crit_edge70, %3, %59
  ret i32 0
}